; ModuleID = '54/82.c'
source_filename = "54/82.c"
target datalayout = "e-m:e-p270:32:32-p271:32:32-p272:64:64-i64:64-f80:128-n8:16:32:64-S128"
target triple = "x86_64-pc-linux-gnu"

@.str = private unnamed_addr constant [5 x i8] c"%d%d\00", align 1
@.str.1 = private unnamed_addr constant [3 x i8] c"%d\00", align 1

; Function Attrs: noinline nounwind uwtable
define dso_local i32 @main() #0 {
  %1 = alloca i32, align 4
  %2 = alloca i32, align 4
  %3 = alloca i32, align 4
  %4 = alloca i32, align 4
  %5 = alloca i32, align 4
  %6 = alloca i32, align 4
  %7 = alloca [100 x i32], align 16
  %8 = alloca i32, align 4
  store i32 0, i32* %1, align 4
  store i32 0, i32* %8, align 4
  %9 = call i32 (i8*, ...) @__isoc99_scanf(i8* getelementptr inbounds ([5 x i8], [5 x i8]* @.str, i64 0, i64 0), i32* %2, i32* %3)
  store i32 0, i32* %5, align 4
  br label %10

10:                                               ; preds = %18, %0
  %11 = load i32, i32* %5, align 4
  %12 = load i32, i32* %2, align 4
  %13 = icmp slt i32 %11, %12
  br i1 %13, label %14, label %21

14:                                               ; preds = %10
  %15 = load i32, i32* %5, align 4
  %16 = sext i32 %15 to i64
  %17 = getelementptr inbounds [100 x i32], [100 x i32]* %7, i64 0, i64 %16
  store i32 0, i32* %17, align 4
  br label %18

18:                                               ; preds = %14
  %19 = load i32, i32* %5, align 4
  %20 = add nsw i32 %19, 1
  store i32 %20, i32* %5, align 4
  br label %10

21:                                               ; preds = %10
  store i32 1, i32* %6, align 4
  br label %22

22:                                               ; preds = %79, %21
  store i32 0, i32* %8, align 4
  %23 = load i32, i32* %6, align 4
  %24 = load i32, i32* %2, align 4
  %25 = sub nsw i32 %24, 1
  %26 = sext i32 %25 to i64
  %27 = getelementptr inbounds [100 x i32], [100 x i32]* %7, i64 0, i64 %26
  store i32 %23, i32* %27, align 4
  %28 = load i32, i32* %2, align 4
  %29 = sub nsw i32 %28, 1
  store i32 %29, i32* %5, align 4
  br label %30

30:                                               ; preds = %64, %22
  %31 = load i32, i32* %5, align 4
  %32 = icmp sgt i32 %31, 0
  br i1 %32, label %33, label %67

33:                                               ; preds = %30
  %34 = load i32, i32* %5, align 4
  %35 = sext i32 %34 to i64
  %36 = getelementptr inbounds [100 x i32], [100 x i32]* %7, i64 0, i64 %35
  %37 = load i32, i32* %36, align 4
  %38 = load i32, i32* %2, align 4
  %39 = mul nsw i32 %37, %38
  %40 = load i32, i32* %3, align 4
  %41 = add nsw i32 %39, %40
  %42 = load i32, i32* %2, align 4
  %43 = sub nsw i32 %42, 1
  %44 = srem i32 %41, %43
  %45 = icmp eq i32 %44, 0
  br i1 %45, label %46, label %62

46:                                               ; preds = %33
  %47 = load i32, i32* %5, align 4
  %48 = sext i32 %47 to i64
  %49 = getelementptr inbounds [100 x i32], [100 x i32]* %7, i64 0, i64 %48
  %50 = load i32, i32* %49, align 4
  %51 = load i32, i32* %2, align 4
  %52 = mul nsw i32 %50, %51
  %53 = load i32, i32* %3, align 4
  %54 = add nsw i32 %52, %53
  %55 = load i32, i32* %2, align 4
  %56 = sub nsw i32 %55, 1
  %57 = sdiv i32 %54, %56
  %58 = load i32, i32* %5, align 4
  %59 = sub nsw i32 %58, 1
  %60 = sext i32 %59 to i64
  %61 = getelementptr inbounds [100 x i32], [100 x i32]* %7, i64 0, i64 %60
  store i32 %57, i32* %61, align 4
  br label %63

62:                                               ; preds = %33
  store i32 1, i32* %8, align 4
  br label %67

63:                                               ; preds = %46
  br label %64

64:                                               ; preds = %63
  %65 = load i32, i32* %5, align 4
  %66 = add nsw i32 %65, -1
  store i32 %66, i32* %5, align 4
  br label %30

67:                                               ; preds = %62, %30
  %68 = load i32, i32* %8, align 4
  %69 = icmp eq i32 %68, 0
  br i1 %69, label %70, label %78

70:                                               ; preds = %67
  %71 = getelementptr inbounds [100 x i32], [100 x i32]* %7, i64 0, i64 0
  %72 = load i32, i32* %71, align 16
  %73 = load i32, i32* %2, align 4
  %74 = mul nsw i32 %72, %73
  %75 = load i32, i32* %3, align 4
  %76 = add nsw i32 %74, %75
  %77 = call i32 (i8*, ...) @printf(i8* getelementptr inbounds ([3 x i8], [3 x i8]* @.str.1, i64 0, i64 0), i32 %76)
  br label %82

78:                                               ; preds = %67
  br label %79

79:                                               ; preds = %78
  %80 = load i32, i32* %6, align 4
  %81 = add nsw i32 %80, 1
  store i32 %81, i32* %6, align 4
  br label %22

82:                                               ; preds = %70
  %83 = load i32, i32* %1, align 4
  ret i32 %83
}

declare dso_local i32 @__isoc99_scanf(i8*, ...) #1

declare dso_local i32 @printf(i8*, ...) #1


!llvm.module.flags = !{!0}
!llvm.ident = !{!1}

!0 = !{i32 1, !"wchar_size", i32 4}
!1 = !{!"clang version 10.0.0-4ubuntu1 "}
