; ModuleID = 'source-C-CXX/53/82.c'
source_filename = "source-C-CXX/53/82.c"
target datalayout = "e-m:e-p270:32:32-p271:32:32-p272:64:64-i64:64-f80:128-n8:16:32:64-S128"
target triple = "x86_64-pc-linux-gnu"

@.str = private unnamed_addr constant [5 x i8] c"%d%d\00", align 1
@.str.1 = private unnamed_addr constant [3 x i8] c"%d\00", align 1

; Function Attrs: nofree nounwind sspstrong uwtable
define dso_local i32 @main() local_unnamed_addr #0 {
  %1 = alloca i32, align 4
  %2 = alloca i32, align 4
  %3 = alloca [100 x i32], align 16
  %4 = bitcast [100 x i32]* %3 to i8*
  %5 = bitcast i32* %1 to i8*
  call void @llvm.lifetime.start.p0i8(i64 4, i8* nonnull %5) #4
  %6 = bitcast i32* %2 to i8*
  call void @llvm.lifetime.start.p0i8(i64 4, i8* nonnull %6) #4
  call void @llvm.lifetime.start.p0i8(i64 400, i8* nonnull %4) #4
  %7 = call i32 (i8*, ...) @__isoc99_scanf(i8* getelementptr inbounds ([5 x i8], [5 x i8]* @.str, i64 0, i64 0), i32* nonnull %1, i32* nonnull %2)
  %8 = load i32, i32* %1, align 4, !tbaa !5
  %9 = icmp sgt i32 %8, 0
  br i1 %9, label %15, label %10

10:                                               ; preds = %0
  %11 = add nsw i32 %8, -1
  %12 = sext i32 %11 to i64
  %13 = getelementptr inbounds [100 x i32], [100 x i32]* %3, i64 0, i64 %12
  %14 = load i32, i32* %2, align 4
  store i32 1, i32* %13, align 4, !tbaa !5
  br label %48

15:                                               ; preds = %0
  %16 = zext i32 %8 to i64
  %17 = shl nuw nsw i64 %16, 2
  call void @llvm.memset.p0i8.i64(i8* nonnull align 16 %4, i8 0, i64 %17, i1 false)
  %18 = add nsw i32 %8, -1
  %19 = zext i32 %18 to i64
  %20 = getelementptr inbounds [100 x i32], [100 x i32]* %3, i64 0, i64 %19
  %21 = load i32, i32* %2, align 4
  %22 = icmp eq i32 %8, 1
  store i32 1, i32* %20, align 4, !tbaa !5
  br i1 %22, label %48, label %23

23:                                               ; preds = %15
  %24 = zext i32 %8 to i64
  %25 = zext i32 %18 to i64
  %26 = getelementptr inbounds [100 x i32], [100 x i32]* %3, i64 0, i64 %25
  br label %27

27:                                               ; preds = %23, %39
  %28 = phi i32 [ %40, %39 ], [ 1, %23 ]
  %29 = load i32, i32* %26, align 4, !tbaa !5
  br label %30

30:                                               ; preds = %41, %27
  %31 = phi i32 [ %37, %41 ], [ %29, %27 ]
  %32 = phi i64 [ %47, %41 ], [ %24, %27 ]
  %33 = phi i32 [ %42, %41 ], [ %8, %27 ]
  %34 = mul nsw i32 %31, %8
  %35 = add nsw i32 %34, %21
  %36 = srem i32 %35, %18
  %37 = sdiv i32 %35, %18
  %38 = icmp eq i32 %36, 0
  br i1 %38, label %41, label %39

39:                                               ; preds = %30
  %40 = add nuw nsw i32 %28, 1
  store i32 %40, i32* %20, align 4, !tbaa !5
  br label %27

41:                                               ; preds = %30
  %42 = add nsw i32 %33, -1
  %43 = add nsw i32 %33, -2
  %44 = zext i32 %43 to i64
  %45 = getelementptr inbounds [100 x i32], [100 x i32]* %3, i64 0, i64 %44
  store i32 %37, i32* %45, align 4, !tbaa !5
  %46 = icmp sgt i64 %32, 2
  %47 = add nsw i64 %32, -1
  br i1 %46, label %30, label %48, !llvm.loop !9

48:                                               ; preds = %41, %10, %15
  %49 = phi i32 [ %14, %10 ], [ %21, %15 ], [ %21, %41 ]
  %50 = getelementptr inbounds [100 x i32], [100 x i32]* %3, i64 0, i64 0
  %51 = load i32, i32* %50, align 16, !tbaa !5
  %52 = mul nsw i32 %51, %8
  %53 = add nsw i32 %52, %49
  %54 = call i32 (i8*, ...) @printf(i8* nonnull dereferenceable(1) getelementptr inbounds ([3 x i8], [3 x i8]* @.str.1, i64 0, i64 0), i32 %53)
  call void @llvm.lifetime.end.p0i8(i64 400, i8* nonnull %4) #4
  call void @llvm.lifetime.end.p0i8(i64 4, i8* nonnull %6) #4
  call void @llvm.lifetime.end.p0i8(i64 4, i8* nonnull %5) #4
  ret i32 0
}

; Function Attrs: argmemonly mustprogress nofree nosync nounwind willreturn
declare void @llvm.lifetime.start.p0i8(i64 immarg, i8* nocapture) #1

; Function Attrs: nofree nounwind
declare noundef i32 @__isoc99_scanf(i8* nocapture noundef readonly, ...) local_unnamed_addr #2

; Function Attrs: nofree nounwind
declare noundef i32 @printf(i8* nocapture noundef readonly, ...) local_unnamed_addr #2

; Function Attrs: argmemonly mustprogress nofree nosync nounwind willreturn
declare void @llvm.lifetime.end.p0i8(i64 immarg, i8* nocapture) #1

; Function Attrs: argmemonly nofree nounwind willreturn writeonly
declare void @llvm.memset.p0i8.i64(i8* nocapture writeonly, i8, i64, i1 immarg) #3


!llvm.module.flags = !{!0, !1, !2, !3}
!llvm.ident = !{!4}

!0 = !{i32 1, !"wchar_size", i32 4}
!1 = !{i32 7, !"PIC Level", i32 2}
!2 = !{i32 7, !"PIE Level", i32 2}
!3 = !{i32 7, !"uwtable", i32 1}
!4 = !{!"clang version 13.0.0"}
!5 = !{!6, !6, i64 0}
!6 = !{!"int", !7, i64 0}
!7 = !{!"omnipotent char", !8, i64 0}
!8 = !{!"Simple C/C++ TBAA"}
!9 = distinct !{!9, !10}
!10 = !{!"llvm.loop.mustprogress"}
